target datalayout = "e-m:e-p270:32:32-p271:32:32-p272:64:64-i64:64-i128:128-f80:128-n8:16:32:64-S128"
target triple = "x86_64-pc-linux-gnu"

%struct.RBasic = type { i64, i64 }
%struct.RRegexp = type { %struct.RBasic, ptr, i64, i64 }

@.str.2 = private unnamed_addr constant [8 x i8] c"../re.c\00", align 1
@rb_cRegexp = dso_local global i64 0, align 8
@ruby_current_ec = external thread_local global ptr, align 8

; Function Attrs: inlinehint nounwind sspstrong willreturn memory(none) uwtable
define internal zeroext i1 @RB_IMMEDIATE_P(i64 noundef %0) #7 {
  %2 = alloca i64, align 8
  store i64 %0, ptr %2, align 8, !tbaa !11
  %3 = load i64, ptr %2, align 8, !tbaa !11
  %4 = and i64 %3, 7
  %5 = icmp ne i64 %4, 0
  ret i1 %5
}

; Function Attrs: inlinehint nounwind sspstrong willreturn memory(none) uwtable
define internal zeroext i1 @RB_SPECIAL_CONST_P(i64 noundef %0) #7 {
  %2 = alloca i64, align 8
  store i64 %0, ptr %2, align 8, !tbaa !11
  %3 = load i64, ptr %2, align 8, !tbaa !11
  %4 = icmp eq i64 %3, 0
  br i1 %4, label %8, label %5

5:                                                ; preds = %1
  %6 = load i64, ptr %2, align 8, !tbaa !11
  %7 = call zeroext i1 @RB_IMMEDIATE_P(i64 noundef %6) #31
  br label %8

8:                                                ; preds = %5, %1
  %9 = phi i1 [ true, %1 ], [ %7, %5 ]
  ret i1 %9
}

; Function Attrs: inlinehint nounwind sspstrong uwtable
define internal ptr @rb_current_execution_context(i1 noundef zeroext %0) #3 {
  %2 = alloca i8, align 1
  %3 = alloca ptr, align 8
  %4 = zext i1 %0 to i8
  store i8 %4, ptr %2, align 1, !tbaa !70
  call void @llvm.lifetime.start.p0(i64 8, ptr %3) #28
  %5 = call align 8 ptr @llvm.threadlocal.address.p0(ptr align 8 @ruby_current_ec)
  %6 = load ptr, ptr %5, align 8, !tbaa !126
  store ptr %6, ptr %3, align 8, !tbaa !126
  %7 = load ptr, ptr %3, align 8, !tbaa !126
  call void @llvm.lifetime.end.p0(i64 8, ptr %3) #28
  ret ptr %7
}

; Function Attrs: inlinehint nounwind sspstrong uwtable
define internal i64 @rb_obj_written(i64 noundef %0, i64 noundef %1, i64 noundef %2, ptr noundef %3, i32 noundef %4) #3 {
  %6 = alloca i64, align 8
  %7 = alloca i64, align 8
  %8 = alloca i64, align 8
  %9 = alloca ptr, align 8
  %10 = alloca i32, align 4
  store i64 %0, ptr %6, align 8, !tbaa !11
  store i64 %1, ptr %7, align 8, !tbaa !11
  store i64 %2, ptr %8, align 8, !tbaa !11
  store ptr %3, ptr %9, align 8, !tbaa !13
  store i32 %4, ptr %10, align 4, !tbaa !16
  %11 = load i64, ptr %8, align 8, !tbaa !11
  %12 = call zeroext i1 @RB_SPECIAL_CONST_P(i64 noundef %11) #31
  br i1 %12, label %16, label %13

13:                                               ; preds = %5
  %14 = load i64, ptr %6, align 8, !tbaa !11
  %15 = load i64, ptr %8, align 8, !tbaa !11
  call void @rb_gc_writebarrier(i64 noundef %14, i64 noundef %15)
  br label %16

16:                                               ; preds = %13, %5
  %17 = load i64, ptr %6, align 8, !tbaa !11
  ret i64 %17
}

; Function Attrs: nounwind sspstrong uwtable
define internal i64 @rb_reg_s_alloc(i64 noundef %0) #0 {
  %2 = alloca i64, align 8
  %3 = alloca ptr, align 8
  store i64 %0, ptr %2, align 8, !tbaa !11
  call void @llvm.lifetime.start.p0(i64 8, ptr %3) #28
  %4 = call ptr @rb_current_execution_context(i1 noundef zeroext true)
  %5 = load i64, ptr %2, align 8, !tbaa !11
  %6 = call i64 @rb_wb_protected_newobj_of(ptr noundef %4, i64 noundef %5, i64 noundef 6, i64 noundef 40)
  %7 = inttoptr i64 %6 to ptr
  store ptr %7, ptr %3, align 8, !tbaa !84
  %8 = load ptr, ptr %3, align 8, !tbaa !84
  %9 = getelementptr inbounds nuw %struct.RRegexp, ptr %8, i32 0, i32 1
  store ptr null, ptr %9, align 8, !tbaa !50
  %10 = load ptr, ptr %3, align 8, !tbaa !84
  %11 = ptrtoint ptr %10 to i64
  %12 = load ptr, ptr %3, align 8, !tbaa !84
  %13 = getelementptr inbounds nuw %struct.RRegexp, ptr %12, i32 0, i32 2
  %14 = call i64 @rb_obj_write(i64 noundef %11, ptr noundef %13, i64 noundef 0, ptr noundef @.str.2, i32 noundef 3389)
  %15 = load ptr, ptr %3, align 8, !tbaa !84
  %16 = getelementptr inbounds nuw %struct.RRegexp, ptr %15, i32 0, i32 3
  store i64 0, ptr %16, align 8, !tbaa !59
  %17 = load ptr, ptr %3, align 8, !tbaa !84
  %18 = ptrtoint ptr %17 to i64
  call void @llvm.lifetime.end.p0(i64 8, ptr %3) #28
  ret i64 %18
}

; Function Attrs: inlinehint nounwind sspstrong uwtable
define internal i64 @rb_obj_write(i64 noundef %0, ptr noundef %1, i64 noundef %2, ptr noundef %3, i32 noundef %4) #3 {
  %6 = alloca i64, align 8
  %7 = alloca ptr, align 8
  %8 = alloca i64, align 8
  %9 = alloca ptr, align 8
  %10 = alloca i32, align 4
  store i64 %0, ptr %6, align 8, !tbaa !11
  store ptr %1, ptr %7, align 8, !tbaa !62
  store i64 %2, ptr %8, align 8, !tbaa !11
  store ptr %3, ptr %9, align 8, !tbaa !13
  store i32 %4, ptr %10, align 4, !tbaa !16
  %11 = load i64, ptr %8, align 8, !tbaa !11
  %12 = load ptr, ptr %7, align 8, !tbaa !62
  store i64 %11, ptr %12, align 8, !tbaa !11
  %13 = load i64, ptr %6, align 8, !tbaa !11
  %14 = load i64, ptr %8, align 8, !tbaa !11
  %15 = load ptr, ptr %9, align 8, !tbaa !13
  %16 = load i32, ptr %10, align 4, !tbaa !16
  %17 = call i64 @rb_obj_written(i64 noundef %13, i64 noundef 36, i64 noundef %14, ptr noundef %15, i32 noundef %16)
  %18 = load i64, ptr %6, align 8, !tbaa !11
  ret i64 %18
}

; Function Attrs: nounwind sspstrong uwtable
define dso_local i64 @rb_reg_alloc() #0 {
  %1 = load i64, ptr @rb_cRegexp, align 8, !tbaa !11
  %2 = call i64 @rb_reg_s_alloc(i64 noundef %1)
  ret i64 %2
}

; Function Attrs: nounwind sspstrong uwtable
define dso_local i64 @rb_enc_reg_new(ptr noundef %0, i64 noundef %1, ptr noundef %2, i32 noundef %3) #0 {
  %5 = alloca ptr, align 8
  %6 = alloca i64, align 8
  %7 = alloca ptr, align 8
  %8 = alloca i32, align 4
  %9 = alloca i64, align 8
  %10 = alloca [90 x i8], align 16
  store ptr %0, ptr %5, align 8, !tbaa !13
  store i64 %1, ptr %6, align 8, !tbaa !11
  store ptr %2, ptr %7, align 8, !tbaa !20
  store i32 %3, ptr %8, align 4, !tbaa !16
  call void @llvm.lifetime.start.p0(i64 8, ptr %9) #28
  %11 = call i64 @rb_reg_alloc()
  store i64 %11, ptr %9, align 8, !tbaa !11
  call void @llvm.lifetime.start.p0(i64 90, ptr %10) #28
  call void @llvm.memset.p0.i64(ptr align 16 %10, i8 0, i64 90, i1 false)
  %12 = load i64, ptr %9, align 8, !tbaa !11
  %13 = load ptr, ptr %5, align 8, !tbaa !13
  %14 = load i64, ptr %6, align 8, !tbaa !11
  %15 = load ptr, ptr %7, align 8, !tbaa !20
  %16 = load i32, ptr %8, align 4, !tbaa !16
  %17 = getelementptr inbounds [90 x i8], ptr %10, i64 0, i64 0
  %18 = call i32 @rb_reg_initialize(i64 noundef %12, ptr noundef %13, i64 noundef %14, ptr noundef %15, i32 noundef %16, ptr noundef %17, ptr noundef null, i32 noundef 0)
  %19 = icmp ne i32 %18, 0
  br i1 %19, label %20, label %26

20:                                               ; preds = %4
  %21 = load ptr, ptr %5, align 8, !tbaa !13
  %22 = load i64, ptr %6, align 8, !tbaa !11
  %23 = load ptr, ptr %7, align 8, !tbaa !20
  %24 = load i32, ptr %8, align 4, !tbaa !16
  %25 = getelementptr inbounds [90 x i8], ptr %10, i64 0, i64 0
  call void @rb_enc_reg_raise(ptr noundef %21, i64 noundef %22, ptr noundef %23, i32 noundef %24, ptr noundef %25) #30
  unreachable

26:                                               ; preds = %4
  %27 = load i64, ptr %9, align 8, !tbaa !11
  %28 = load i64, ptr %9, align 8, !tbaa !11
  %29 = inttoptr i64 %28 to ptr
  %30 = getelementptr inbounds nuw %struct.RRegexp, ptr %29, i32 0, i32 2
  br i1 false, label %31, label %34

31:                                               ; preds = %26
  %32 = load i64, ptr %6, align 8, !tbaa !11
  %33 = call i1 @llvm.is.constant.i64(i64 %32)
  br label %34

34:                                               ; preds = %31, %26
  %35 = phi i1 [ false, %26 ], [ %33, %31 ]
  %36 = select i1 %35, ptr @rb_enc_str_new_static, ptr @rb_enc_str_new
  %37 = load ptr, ptr %5, align 8, !tbaa !13
  %38 = load i64, ptr %6, align 8, !tbaa !11
  %39 = load ptr, ptr %7, align 8, !tbaa !20
  %40 = call i64 %36(ptr noundef %37, i64 noundef %38, ptr noundef %39)
  %41 = call i64 @rb_fstring(i64 noundef %40)
  %42 = call i64 @rb_obj_write(i64 noundef %27, ptr noundef %30, i64 noundef %41, ptr noundef @.str.2, i32 noundef 3450)
  %43 = load i64, ptr %9, align 8, !tbaa !11
  call void @llvm.lifetime.end.p0(i64 90, ptr %10) #28
  call void @llvm.lifetime.end.p0(i64 8, ptr %9) #28
  ret i64 %43
}