; Function Attrs: nounwind sspstrong uwtable
define dso_local noundef i64 @rb_enc_reg_new(ptr noundef %0, i64 noundef %1, ptr noundef %2, i32 noundef %3) local_unnamed_addr #2 {
  %5 = alloca [90 x i8], align 16
  %6 = load i64, ptr @rb_cRegexp, align 8, !tbaa !18
  %7 = tail call align 8 ptr @llvm.threadlocal.address.p0(ptr align 8 @ruby_current_ec)
  %8 = load ptr, ptr %7, align 8, !tbaa !41
  %9 = tail call i64 @rb_wb_protected_newobj_of(ptr noundef %8, i64 noundef %6, i64 noundef 6, i64 noundef 40) #29
  %10 = inttoptr i64 %9 to ptr
  %11 = getelementptr inbounds nuw i8, ptr %10, i64 16
  tail call void @llvm.memset.p0.i64(ptr noundef nonnull align 8 dereferenceable(24) %11, i8 0, i64 24, i1 false)
  call void @llvm.lifetime.start.p0(i64 90, ptr nonnull %5) #29
  call void @llvm.memset.p0.i64(ptr noundef nonnull align 16 dereferenceable(90) %5, i8 0, i64 90, i1 false)
  %12 = call fastcc i32 @rb_reg_initialize(i64 noundef %9, ptr noundef %0, i64 noundef %1, ptr noundef %2, i32 noundef %3, ptr noundef %5, ptr noundef null, i32 noundef 0)
  %.not = icmp eq i32 %12, 0
  br i1 %.not, label %14, label %13

13:                                               ; preds = %4
  call fastcc void @rb_enc_reg_raise(ptr noundef %0, i64 noundef %1, ptr noundef %2, i32 noundef %3, ptr noundef %5) #31
  unreachable

14:                                               ; preds = %4
  %15 = getelementptr inbounds nuw i8, ptr %10, i64 24
  %16 = call i64 @rb_enc_str_new(ptr noundef %0, i64 noundef %1, ptr noundef %2) #29
  %17 = call i64 @rb_fstring(i64 noundef %16) #29
  store i64 %17, ptr %15, align 8, !tbaa !18
  %18 = icmp eq i64 %17, 0
  %19 = and i64 %17, 7
  %20 = icmp ne i64 %19, 0
  %21 = or i1 %18, %20
  br i1 %21, label %rb_obj_write.exit, label %22

22:                                               ; preds = %14
  call void @rb_gc_writebarrier(i64 noundef %9, i64 noundef %17) #29
  br label %rb_obj_write.exit

rb_obj_write.exit:                                ; preds = %14, %22
  call void @llvm.lifetime.end.p0(i64 90, ptr nonnull %5) #29
  ret i64 %9
}